target datalayout = "e-m:e-p270:32:32-p271:32:32-p272:64:64-i64:64-i128:128-f80:128-n8:16:32:64-S128"
target triple = "x86_64-pc-linux-gnu"

%class.btMatrix3x3 = type { [3 x %class.btVector3] }
%class.btVector3 = type { [4 x float] }

; Function Attrs: inlinehint mustprogress nounwind uwtable
define linkonce_odr dso_local noundef nonnull align 4 dereferenceable(16) ptr @_ZN11btMatrix3x3ixEi(ptr noundef nonnull align 4 dereferenceable(48) %0, i32 noundef %1) #4 comdat align 2 {
  %3 = alloca ptr, align 8
  %4 = alloca i32, align 4
  store ptr %0, ptr %3, align 8, !tbaa !57
  store i32 %1, ptr %4, align 4, !tbaa !9
  %5 = load ptr, ptr %3, align 8
  %6 = getelementptr inbounds nuw %class.btMatrix3x3, ptr %5, i32 0, i32 0
  %7 = load i32, ptr %4, align 4, !tbaa !9
  %8 = sext i32 %7 to i64
  %9 = getelementptr inbounds [3 x %class.btVector3], ptr %6, i64 0, i64 %8
  ret ptr %9
}

; Function Attrs: inlinehint mustprogress nounwind uwtable
define linkonce_odr dso_local noundef ptr @_ZN9btVector3cvPfEv(ptr noundef nonnull align 4 dereferenceable(16) %0) #4 comdat align 2 {
  %2 = alloca ptr, align 8
  store ptr %0, ptr %2, align 8, !tbaa !52
  %3 = load ptr, ptr %2, align 8
  %4 = getelementptr inbounds nuw %class.btVector3, ptr %3, i32 0, i32 0
  %5 = getelementptr inbounds [4 x float], ptr %4, i64 0, i64 0
  ret ptr %5
}

; Function Attrs: mustprogress uwtable
define linkonce_odr dso_local noundef nonnull align 4 dereferenceable(4) ptr @_ZN24btInverseDynamicsBullet35mat33clEii(ptr noundef nonnull align 4 dereferenceable(48) %0, i32 noundef %1, i32 noundef %2) #2 comdat align 2 {
  %4 = alloca ptr, align 8
  %5 = alloca i32, align 4
  %6 = alloca i32, align 4
  store ptr %0, ptr %4, align 8, !tbaa !22
  store i32 %1, ptr %5, align 4, !tbaa !9
  store i32 %2, ptr %6, align 4, !tbaa !9
  %7 = load ptr, ptr %4, align 8
  %8 = load i32, ptr %5, align 4, !tbaa !9
  %9 = call noundef nonnull align 4 dereferenceable(16) ptr @_ZN11btMatrix3x3ixEi(ptr noundef nonnull align 4 dereferenceable(48) %7, i32 noundef %8)
  %10 = call noundef ptr @_ZN9btVector3cvPfEv(ptr noundef nonnull align 4 dereferenceable(16) %9)
  %11 = load i32, ptr %6, align 4, !tbaa !9
  %12 = sext i32 %11 to i64
  %13 = getelementptr inbounds float, ptr %10, i64 %12
  ret ptr %13
}

; Function Attrs: mustprogress uwtable
define linkonce_odr dso_local noundef nonnull align 4 dereferenceable(4) ptr @_ZN24btInverseDynamicsBullet34vec3clEi(ptr noundef nonnull align 4 dereferenceable(16) %0, i32 noundef %1) #2 comdat align 2 {
  %3 = alloca ptr, align 8
  %4 = alloca i32, align 4
  store ptr %0, ptr %3, align 8, !tbaa !12
  store i32 %1, ptr %4, align 4, !tbaa !9
  %5 = load ptr, ptr %3, align 8
  %6 = call noundef ptr @_ZN9btVector3cvPfEv(ptr noundef nonnull align 4 dereferenceable(16) %5)
  %7 = load i32, ptr %4, align 4, !tbaa !9
  %8 = sext i32 %7 to i64
  %9 = getelementptr inbounds float, ptr %6, i64 %8
  ret ptr %9
}

; Function Attrs: inlinehint mustprogress nounwind uwtable
define linkonce_odr dso_local noundef float @_Z5btCosf(float noundef %0) #4 comdat {
  %2 = alloca float, align 4
  store float %0, ptr %2, align 4, !tbaa !14
  %3 = load float, ptr %2, align 4, !tbaa !14
  %4 = call float @cosf(float noundef %3) #10, !tbaa !9
  ret float %4
}

; Function Attrs: inlinehint mustprogress nounwind uwtable
define linkonce_odr dso_local noundef float @_Z5btSinf(float noundef %0) #4 comdat {
  %2 = alloca float, align 4
  store float %0, ptr %2, align 4, !tbaa !14
  %3 = load float, ptr %2, align 4, !tbaa !14
  %4 = call float @sinf(float noundef %3) #10, !tbaa !9
  ret float %4
}

; Function Attrs: mustprogress uwtable
define dso_local void @_ZN24btInverseDynamicsBullet315getVecMatFromDHEffffPNS_4vec3EPNS_5mat33E(float noundef %0, float noundef %1, float noundef %2, float noundef %3, ptr noundef %4, ptr noundef %5) #2 {
  %7 = alloca float, align 4
  %8 = alloca float, align 4
  %9 = alloca float, align 4
  %10 = alloca float, align 4
  %11 = alloca ptr, align 8
  %12 = alloca ptr, align 8
  %13 = alloca float, align 4
  %14 = alloca float, align 4
  %15 = alloca float, align 4
  %16 = alloca float, align 4
  store float %0, ptr %7, align 4, !tbaa !14
  store float %1, ptr %8, align 4, !tbaa !14
  store float %2, ptr %9, align 4, !tbaa !14
  store float %3, ptr %10, align 4, !tbaa !14
  store ptr %4, ptr %11, align 8, !tbaa !12
  store ptr %5, ptr %12, align 8, !tbaa !22
  call void @llvm.lifetime.start.p0(i64 4, ptr %13) #10
  %17 = load float, ptr %10, align 4, !tbaa !14
  %18 = call noundef float @_Z5btSinf(float noundef %17)
  store float %18, ptr %13, align 4, !tbaa !14
  call void @llvm.lifetime.start.p0(i64 4, ptr %14) #10
  %19 = load float, ptr %10, align 4, !tbaa !14
  %20 = call noundef float @_Z5btCosf(float noundef %19)
  store float %20, ptr %14, align 4, !tbaa !14
  call void @llvm.lifetime.start.p0(i64 4, ptr %15) #10
  %21 = load float, ptr %7, align 4, !tbaa !14
  %22 = call noundef float @_Z5btSinf(float noundef %21)
  store float %22, ptr %15, align 4, !tbaa !14
  call void @llvm.lifetime.start.p0(i64 4, ptr %16) #10
  %23 = load float, ptr %7, align 4, !tbaa !14
  %24 = call noundef float @_Z5btCosf(float noundef %23)
  store float %24, ptr %16, align 4, !tbaa !14
  %25 = load float, ptr %9, align 4, !tbaa !14
  %26 = load ptr, ptr %11, align 8, !tbaa !12
  %27 = call noundef nonnull align 4 dereferenceable(4) ptr @_ZN24btInverseDynamicsBullet34vec3clEi(ptr noundef nonnull align 4 dereferenceable(16) %26, i32 noundef 0)
  store float %25, ptr %27, align 4, !tbaa !14
  %28 = load float, ptr %13, align 4, !tbaa !14
  %29 = fneg float %28
  %30 = load float, ptr %8, align 4, !tbaa !14
  %31 = fmul float %29, %30
  %32 = load ptr, ptr %11, align 8, !tbaa !12
  %33 = call noundef nonnull align 4 dereferenceable(4) ptr @_ZN24btInverseDynamicsBullet34vec3clEi(ptr noundef nonnull align 4 dereferenceable(16) %32, i32 noundef 1)
  store float %31, ptr %33, align 4, !tbaa !14
  %34 = load float, ptr %14, align 4, !tbaa !14
  %35 = load float, ptr %8, align 4, !tbaa !14
  %36 = fmul float %34, %35
  %37 = load ptr, ptr %11, align 8, !tbaa !12
  %38 = call noundef nonnull align 4 dereferenceable(4) ptr @_ZN24btInverseDynamicsBullet34vec3clEi(ptr noundef nonnull align 4 dereferenceable(16) %37, i32 noundef 2)
  store float %36, ptr %38, align 4, !tbaa !14
  %39 = load float, ptr %16, align 4, !tbaa !14
  %40 = load ptr, ptr %12, align 8, !tbaa !22
  %41 = call noundef nonnull align 4 dereferenceable(4) ptr @_ZN24btInverseDynamicsBullet35mat33clEii(ptr noundef nonnull align 4 dereferenceable(48) %40, i32 noundef 0, i32 noundef 0)
  store float %39, ptr %41, align 4, !tbaa !14
  %42 = load float, ptr %15, align 4, !tbaa !14
  %43 = fneg float %42
  %44 = load ptr, ptr %12, align 8, !tbaa !22
  %45 = call noundef nonnull align 4 dereferenceable(4) ptr @_ZN24btInverseDynamicsBullet35mat33clEii(ptr noundef nonnull align 4 dereferenceable(48) %44, i32 noundef 0, i32 noundef 1)
  store float %43, ptr %45, align 4, !tbaa !14
  %46 = load ptr, ptr %12, align 8, !tbaa !22
  %47 = call noundef nonnull align 4 dereferenceable(4) ptr @_ZN24btInverseDynamicsBullet35mat33clEii(ptr noundef nonnull align 4 dereferenceable(48) %46, i32 noundef 0, i32 noundef 2)
  store float 0.000000e+00, ptr %47, align 4, !tbaa !14
  %48 = load float, ptr %15, align 4, !tbaa !14
  %49 = load float, ptr %14, align 4, !tbaa !14
  %50 = fmul float %48, %49
  %51 = load ptr, ptr %12, align 8, !tbaa !22
  %52 = call noundef nonnull align 4 dereferenceable(4) ptr @_ZN24btInverseDynamicsBullet35mat33clEii(ptr noundef nonnull align 4 dereferenceable(48) %51, i32 noundef 1, i32 noundef 0)
  store float %50, ptr %52, align 4, !tbaa !14
  %53 = load float, ptr %16, align 4, !tbaa !14
  %54 = load float, ptr %14, align 4, !tbaa !14
  %55 = fmul float %53, %54
  %56 = load ptr, ptr %12, align 8, !tbaa !22
  %57 = call noundef nonnull align 4 dereferenceable(4) ptr @_ZN24btInverseDynamicsBullet35mat33clEii(ptr noundef nonnull align 4 dereferenceable(48) %56, i32 noundef 1, i32 noundef 1)
  store float %55, ptr %57, align 4, !tbaa !14
  %58 = load float, ptr %13, align 4, !tbaa !14
  %59 = fneg float %58
  %60 = load ptr, ptr %12, align 8, !tbaa !22
  %61 = call noundef nonnull align 4 dereferenceable(4) ptr @_ZN24btInverseDynamicsBullet35mat33clEii(ptr noundef nonnull align 4 dereferenceable(48) %60, i32 noundef 1, i32 noundef 2)
  store float %59, ptr %61, align 4, !tbaa !14
  %62 = load float, ptr %15, align 4, !tbaa !14
  %63 = load float, ptr %13, align 4, !tbaa !14
  %64 = fmul float %62, %63
  %65 = load ptr, ptr %12, align 8, !tbaa !22
  %66 = call noundef nonnull align 4 dereferenceable(4) ptr @_ZN24btInverseDynamicsBullet35mat33clEii(ptr noundef nonnull align 4 dereferenceable(48) %65, i32 noundef 2, i32 noundef 0)
  store float %64, ptr %66, align 4, !tbaa !14
  %67 = load float, ptr %16, align 4, !tbaa !14
  %68 = load float, ptr %13, align 4, !tbaa !14
  %69 = fmul float %67, %68
  %70 = load ptr, ptr %12, align 8, !tbaa !22
  %71 = call noundef nonnull align 4 dereferenceable(4) ptr @_ZN24btInverseDynamicsBullet35mat33clEii(ptr noundef nonnull align 4 dereferenceable(48) %70, i32 noundef 2, i32 noundef 1)
  store float %69, ptr %71, align 4, !tbaa !14
  %72 = load float, ptr %14, align 4, !tbaa !14
  %73 = load ptr, ptr %12, align 8, !tbaa !22
  %74 = call noundef nonnull align 4 dereferenceable(4) ptr @_ZN24btInverseDynamicsBullet35mat33clEii(ptr noundef nonnull align 4 dereferenceable(48) %73, i32 noundef 2, i32 noundef 2)
  store float %72, ptr %74, align 4, !tbaa !14
  call void @llvm.lifetime.end.p0(i64 4, ptr %16) #10
  call void @llvm.lifetime.end.p0(i64 4, ptr %15) #10
  call void @llvm.lifetime.end.p0(i64 4, ptr %14) #10
  call void @llvm.lifetime.end.p0(i64 4, ptr %13) #10
  ret void
}