; Function Attrs: mustprogress nofree nounwind willreturn memory(write) uwtable
define dso_local void @_ZN24btInverseDynamicsBullet315getVecMatFromDHEffffPNS_4vec3EPNS_5mat33E(float noundef %0, float noundef %1, float noundef %2, float noundef %3, ptr noundef writeonly captures(none) initializes((0, 12)) %4, ptr noundef writeonly captures(none) initializes((0, 12), (16, 28), (32, 44)) %5) local_unnamed_addr #10 {
  %7 = tail call noundef float @sinf(float noundef %3) #14, !tbaa !32
  %8 = tail call noundef float @cosf(float noundef %3) #14, !tbaa !32
  %9 = tail call noundef float @sinf(float noundef %0) #14, !tbaa !32
  %10 = tail call noundef float @cosf(float noundef %0) #14, !tbaa !32
  store float %2, ptr %4, align 4, !tbaa !4
  %11 = fneg float %7
  %12 = fmul float %1, %11
  %13 = getelementptr inbounds nuw i8, ptr %4, i64 4
  store float %12, ptr %13, align 4, !tbaa !4
  %14 = fmul float %1, %8
  %15 = getelementptr inbounds nuw i8, ptr %4, i64 8
  store float %14, ptr %15, align 4, !tbaa !4
  store float %10, ptr %5, align 4, !tbaa !4
  %16 = fneg float %9
  %17 = getelementptr inbounds nuw i8, ptr %5, i64 4
  store float %16, ptr %17, align 4, !tbaa !4
  %18 = getelementptr inbounds nuw i8, ptr %5, i64 8
  store float 0.000000e+00, ptr %18, align 4, !tbaa !4
  %19 = fmul float %8, %9
  %20 = getelementptr inbounds nuw i8, ptr %5, i64 16
  store float %19, ptr %20, align 4, !tbaa !4
  %21 = fmul float %8, %10
  %22 = getelementptr inbounds nuw i8, ptr %5, i64 20
  store float %21, ptr %22, align 4, !tbaa !4
  %23 = getelementptr inbounds nuw i8, ptr %5, i64 24
  store float %11, ptr %23, align 4, !tbaa !4
  %24 = fmul float %7, %9
  %25 = getelementptr inbounds nuw i8, ptr %5, i64 32
  store float %24, ptr %25, align 4, !tbaa !4
  %26 = fmul float %7, %10
  %27 = getelementptr inbounds nuw i8, ptr %5, i64 36
  store float %26, ptr %27, align 4, !tbaa !4
  %28 = getelementptr inbounds nuw i8, ptr %5, i64 40
  store float %8, ptr %28, align 4, !tbaa !4
  ret void
}